target datalayout = "e-m:e-p270:32:32-p271:32:32-p272:64:64-i64:64-i128:128-f80:128-n8:16:32:64-S128"
target triple = "x86_64-pc-linux-gnu"

; Function Attrs: mustprogress uwtable
define void @utrie2_enumForLeadSurrogate_77(ptr noundef %0, i32 noundef %1, ptr noundef %2, ptr noundef %3, ptr noundef %4) #0 {
  %6 = alloca ptr, align 8
  %7 = alloca i32, align 4
  %8 = alloca ptr, align 8
  %9 = alloca ptr, align 8
  %10 = alloca ptr, align 8
  store ptr %0, ptr %6, align 8, !tbaa !3
  store i32 %1, ptr %7, align 4, !tbaa !8
  store ptr %2, ptr %8, align 8, !tbaa !34
  store ptr %3, ptr %9, align 8, !tbaa !34
  store ptr %4, ptr %10, align 8, !tbaa !34
  %11 = load i32, ptr %7, align 4, !tbaa !8
  %12 = and i32 %11, -1024
  %13 = icmp eq i32 %12, 55296
  br i1 %13, label %15, label %14

14:                                               ; preds = %5
  br label %26

15:                                               ; preds = %5
  %16 = load i32, ptr %7, align 4, !tbaa !8
  %17 = sub nsw i32 %16, 55232
  %18 = shl i32 %17, 10
  store i32 %18, ptr %7, align 4, !tbaa !8
  %19 = load ptr, ptr %6, align 8, !tbaa !3
  %20 = load i32, ptr %7, align 4, !tbaa !8
  %21 = load i32, ptr %7, align 4, !tbaa !8
  %22 = add nsw i32 %21, 1024
  %23 = load ptr, ptr %8, align 8, !tbaa !34
  %24 = load ptr, ptr %9, align 8, !tbaa !34
  %25 = load ptr, ptr %10, align 8, !tbaa !34
  call void @_ZL14enumEitherTriePK6UTrie2iiPFjPKvjEPFaS3_iijES3_(ptr noundef %19, i32 noundef %20, i32 noundef %22, ptr noundef %23, ptr noundef %24, ptr noundef %25)
  br label %26

26:                                               ; preds = %15, %14
  ret void
}