; Function Attrs: mustprogress uwtable
define void @utrie2_enumForLeadSurrogate_77(ptr noundef readonly captures(none) %0, i32 noundef %1, ptr noundef %2, ptr noundef %3, ptr noundef %4) local_unnamed_addr #1 {
  %6 = and i32 %1, -1024
  %7 = icmp eq i32 %6, 55296
  br i1 %7, label %8, label %12

8:                                                ; preds = %5
  %9 = shl nuw nsw i32 %1, 10
  %10 = add nsw i32 %9, -56557568
  %11 = add nsw i32 %9, -56556544
  tail call fastcc void @_ZL14enumEitherTriePK6UTrie2iiPFjPKvjEPFaS3_iijES3_(ptr noundef %0, i32 noundef %10, i32 noundef %11, ptr noundef %2, ptr noundef %3, ptr noundef %4)
  br label %12

12:                                               ; preds = %5, %8
  ret void
}